target datalayout = "e-m:e-p270:32:32-p271:32:32-p272:64:64-i64:64-i128:128-f80:128-n8:16:32:64-S128"
target triple = "x86_64-pc-linux-gnu"

%struct.Llb_Mtr_t_ = type { i32, i32, i32, i32, ptr, ptr, ptr, ptr, ptr, ptr, ptr }
%struct.Llb_Grp_t_ = type { i32, ptr, ptr, ptr, ptr, ptr, ptr }
%struct.Llb_Man_t_ = type { ptr, ptr, ptr, ptr, ptr, ptr, ptr, ptr, ptr, ptr, ptr, ptr, ptr, ptr, ptr, ptr, ptr }
%struct.Vec_Ptr_t_ = type { i32, i32, ptr }
%struct.Vec_Int_t_ = type { i32, i32, ptr }
%struct.Aig_Obj_t_ = type { %union.anon, ptr, ptr, i64, i32, i32, %union.anon.0 }
%union.anon = type { ptr }
%union.anon.0 = type { ptr }
%struct.Aig_Man_t_ = type { ptr, ptr, ptr, ptr, ptr, ptr, ptr, %struct.Aig_Obj_t_, i32, i32, i32, i32, i32, i32, [7 x i32], i32, ptr, i32, ptr, i32, ptr, i32, i32, i32, ptr, i32, i32, i32, i32, i32, ptr, ptr, i32, ptr, ptr, i32, ptr, ptr, i32, i32, i32, ptr, ptr, ptr, ptr, ptr, ptr, ptr, ptr, ptr, ptr, ptr, ptr, ptr, ptr, i32, ptr, ptr, ptr, ptr, i32, i64, i64, i64, ptr, ptr }

; Function Attrs: inlinehint nounwind uwtable
define internal i32 @Vec_IntEntry(ptr noundef %0, i32 noundef %1) #5 {
  %3 = alloca ptr, align 8
  %4 = alloca i32, align 4
  store ptr %0, ptr %3, align 8, !tbaa !73
  store i32 %1, ptr %4, align 4, !tbaa !8
  %5 = load ptr, ptr %3, align 8, !tbaa !73
  %6 = getelementptr inbounds nuw %struct.Vec_Int_t_, ptr %5, i32 0, i32 2
  %7 = load ptr, ptr %6, align 8, !tbaa !74
  %8 = load i32, ptr %4, align 4, !tbaa !8
  %9 = sext i32 %8 to i64
  %10 = getelementptr inbounds i32, ptr %7, i64 %9
  %11 = load i32, ptr %10, align 4, !tbaa !8
  ret i32 %11
}

; Function Attrs: inlinehint nounwind uwtable
define internal i32 @Aig_ObjId(ptr noundef %0) #5 {
  %2 = alloca ptr, align 8
  store ptr %0, ptr %2, align 8, !tbaa !56
  %3 = load ptr, ptr %2, align 8, !tbaa !56
  %4 = getelementptr inbounds nuw %struct.Aig_Obj_t_, ptr %3, i32 0, i32 5
  %5 = load i32, ptr %4, align 4, !tbaa !76
  ret i32 %5
}

; Function Attrs: nounwind uwtable
define void @Llb_MtrAddColumn(ptr noundef %0, ptr noundef %1) #0 {
  %3 = alloca ptr, align 8
  %4 = alloca ptr, align 8
  %5 = alloca ptr, align 8
  %6 = alloca i32, align 4
  %7 = alloca i32, align 4
  %8 = alloca i32, align 4
  store ptr %0, ptr %3, align 8, !tbaa !3
  store ptr %1, ptr %4, align 8, !tbaa !50
  call void @llvm.lifetime.start.p0(i64 8, ptr %5) #8
  call void @llvm.lifetime.start.p0(i64 4, ptr %6) #8
  call void @llvm.lifetime.start.p0(i64 4, ptr %7) #8
  call void @llvm.lifetime.start.p0(i64 4, ptr %8) #8
  %9 = load ptr, ptr %4, align 8, !tbaa !50
  %10 = getelementptr inbounds nuw %struct.Llb_Grp_t_, ptr %9, i32 0, i32 0
  %11 = load i32, ptr %10, align 8, !tbaa !52
  store i32 %11, ptr %8, align 4, !tbaa !8
  %12 = load ptr, ptr %4, align 8, !tbaa !50
  %13 = load ptr, ptr %3, align 8, !tbaa !3
  %14 = getelementptr inbounds nuw %struct.Llb_Mtr_t_, ptr %13, i32 0, i32 5
  %15 = load ptr, ptr %14, align 8, !tbaa !45
  %16 = load i32, ptr %8, align 4, !tbaa !8
  %17 = sext i32 %16 to i64
  %18 = getelementptr inbounds ptr, ptr %15, i64 %17
  store ptr %12, ptr %18, align 8, !tbaa !50
  store i32 0, ptr %6, align 4, !tbaa !8
  br label %19

19:                                               ; preds = %69, %2
  %20 = load i32, ptr %6, align 4, !tbaa !8
  %21 = load ptr, ptr %4, align 8, !tbaa !50
  %22 = getelementptr inbounds nuw %struct.Llb_Grp_t_, ptr %21, i32 0, i32 1
  %23 = load ptr, ptr %22, align 8, !tbaa !55
  %24 = call i32 @Vec_PtrSize(ptr noundef %23)
  %25 = icmp slt i32 %20, %24
  br i1 %25, label %26, label %32

26:                                               ; preds = %19
  %27 = load ptr, ptr %4, align 8, !tbaa !50
  %28 = getelementptr inbounds nuw %struct.Llb_Grp_t_, ptr %27, i32 0, i32 1
  %29 = load ptr, ptr %28, align 8, !tbaa !55
  %30 = load i32, ptr %6, align 4, !tbaa !8
  %31 = call ptr @Vec_PtrEntry(ptr noundef %29, i32 noundef %30)
  store ptr %31, ptr %5, align 8, !tbaa !56
  br label %32

32:                                               ; preds = %26, %19
  %33 = phi i1 [ false, %19 ], [ true, %26 ]
  br i1 %33, label %34, label %72

34:                                               ; preds = %32
  %35 = load ptr, ptr %4, align 8, !tbaa !50
  %36 = getelementptr inbounds nuw %struct.Llb_Grp_t_, ptr %35, i32 0, i32 4
  %37 = load ptr, ptr %36, align 8, !tbaa !58
  %38 = getelementptr inbounds nuw %struct.Llb_Man_t_, ptr %37, i32 0, i32 6
  %39 = load ptr, ptr %38, align 8, !tbaa !59
  %40 = load ptr, ptr %5, align 8, !tbaa !56
  %41 = call i32 @Aig_ObjId(ptr noundef %40)
  %42 = call i32 @Vec_IntEntry(ptr noundef %39, i32 noundef %41)
  store i32 %42, ptr %7, align 4, !tbaa !8
  %43 = load ptr, ptr %3, align 8, !tbaa !3
  %44 = getelementptr inbounds nuw %struct.Llb_Mtr_t_, ptr %43, i32 0, i32 7
  %45 = load ptr, ptr %44, align 8, !tbaa !18
  %46 = load i32, ptr %8, align 4, !tbaa !8
  %47 = sext i32 %46 to i64
  %48 = getelementptr inbounds ptr, ptr %45, i64 %47
  %49 = load ptr, ptr %48, align 8, !tbaa !19
  %50 = load i32, ptr %7, align 4, !tbaa !8
  %51 = sext i32 %50 to i64
  %52 = getelementptr inbounds i8, ptr %49, i64 %51
  store i8 1, ptr %52, align 1, !tbaa !20
  %53 = load ptr, ptr %3, align 8, !tbaa !3
  %54 = getelementptr inbounds nuw %struct.Llb_Mtr_t_, ptr %53, i32 0, i32 4
  %55 = load ptr, ptr %54, align 8, !tbaa !44
  %56 = load i32, ptr %8, align 4, !tbaa !8
  %57 = sext i32 %56 to i64
  %58 = getelementptr inbounds i32, ptr %55, i64 %57
  %59 = load i32, ptr %58, align 4, !tbaa !8
  %60 = add nsw i32 %59, 1
  store i32 %60, ptr %58, align 4, !tbaa !8
  %61 = load ptr, ptr %3, align 8, !tbaa !3
  %62 = getelementptr inbounds nuw %struct.Llb_Mtr_t_, ptr %61, i32 0, i32 6
  %63 = load ptr, ptr %62, align 8, !tbaa !33
  %64 = load i32, ptr %7, align 4, !tbaa !8
  %65 = sext i32 %64 to i64
  %66 = getelementptr inbounds i32, ptr %63, i64 %65
  %67 = load i32, ptr %66, align 4, !tbaa !8
  %68 = add nsw i32 %67, 1
  store i32 %68, ptr %66, align 4, !tbaa !8
  br label %69

69:                                               ; preds = %34
  %70 = load i32, ptr %6, align 4, !tbaa !8
  %71 = add nsw i32 %70, 1
  store i32 %71, ptr %6, align 4, !tbaa !8
  br label %19, !llvm.loop !65

72:                                               ; preds = %32
  store i32 0, ptr %6, align 4, !tbaa !8
  br label %73

73:                                               ; preds = %123, %72
  %74 = load i32, ptr %6, align 4, !tbaa !8
  %75 = load ptr, ptr %4, align 8, !tbaa !50
  %76 = getelementptr inbounds nuw %struct.Llb_Grp_t_, ptr %75, i32 0, i32 2
  %77 = load ptr, ptr %76, align 8, !tbaa !66
  %78 = call i32 @Vec_PtrSize(ptr noundef %77)
  %79 = icmp slt i32 %74, %78
  br i1 %79, label %80, label %86

80:                                               ; preds = %73
  %81 = load ptr, ptr %4, align 8, !tbaa !50
  %82 = getelementptr inbounds nuw %struct.Llb_Grp_t_, ptr %81, i32 0, i32 2
  %83 = load ptr, ptr %82, align 8, !tbaa !66
  %84 = load i32, ptr %6, align 4, !tbaa !8
  %85 = call ptr @Vec_PtrEntry(ptr noundef %83, i32 noundef %84)
  store ptr %85, ptr %5, align 8, !tbaa !56
  br label %86

86:                                               ; preds = %80, %73
  %87 = phi i1 [ false, %73 ], [ true, %80 ]
  br i1 %87, label %88, label %126

88:                                               ; preds = %86
  %89 = load ptr, ptr %4, align 8, !tbaa !50
  %90 = getelementptr inbounds nuw %struct.Llb_Grp_t_, ptr %89, i32 0, i32 4
  %91 = load ptr, ptr %90, align 8, !tbaa !58
  %92 = getelementptr inbounds nuw %struct.Llb_Man_t_, ptr %91, i32 0, i32 6
  %93 = load ptr, ptr %92, align 8, !tbaa !59
  %94 = load ptr, ptr %5, align 8, !tbaa !56
  %95 = call i32 @Aig_ObjId(ptr noundef %94)
  %96 = call i32 @Vec_IntEntry(ptr noundef %93, i32 noundef %95)
  store i32 %96, ptr %7, align 4, !tbaa !8
  %97 = load ptr, ptr %3, align 8, !tbaa !3
  %98 = getelementptr inbounds nuw %struct.Llb_Mtr_t_, ptr %97, i32 0, i32 7
  %99 = load ptr, ptr %98, align 8, !tbaa !18
  %100 = load i32, ptr %8, align 4, !tbaa !8
  %101 = sext i32 %100 to i64
  %102 = getelementptr inbounds ptr, ptr %99, i64 %101
  %103 = load ptr, ptr %102, align 8, !tbaa !19
  %104 = load i32, ptr %7, align 4, !tbaa !8
  %105 = sext i32 %104 to i64
  %106 = getelementptr inbounds i8, ptr %103, i64 %105
  store i8 1, ptr %106, align 1, !tbaa !20
  %107 = load ptr, ptr %3, align 8, !tbaa !3
  %108 = getelementptr inbounds nuw %struct.Llb_Mtr_t_, ptr %107, i32 0, i32 4
  %109 = load ptr, ptr %108, align 8, !tbaa !44
  %110 = load i32, ptr %8, align 4, !tbaa !8
  %111 = sext i32 %110 to i64
  %112 = getelementptr inbounds i32, ptr %109, i64 %111
  %113 = load i32, ptr %112, align 4, !tbaa !8
  %114 = add nsw i32 %113, 1
  store i32 %114, ptr %112, align 4, !tbaa !8
  %115 = load ptr, ptr %3, align 8, !tbaa !3
  %116 = getelementptr inbounds nuw %struct.Llb_Mtr_t_, ptr %115, i32 0, i32 6
  %117 = load ptr, ptr %116, align 8, !tbaa !33
  %118 = load i32, ptr %7, align 4, !tbaa !8
  %119 = sext i32 %118 to i64
  %120 = getelementptr inbounds i32, ptr %117, i64 %119
  %121 = load i32, ptr %120, align 4, !tbaa !8
  %122 = add nsw i32 %121, 1
  store i32 %122, ptr %120, align 4, !tbaa !8
  br label %123

123:                                              ; preds = %88
  %124 = load i32, ptr %6, align 4, !tbaa !8
  %125 = add nsw i32 %124, 1
  store i32 %125, ptr %6, align 4, !tbaa !8
  br label %73, !llvm.loop !67

126:                                              ; preds = %86
  call void @llvm.lifetime.end.p0(i64 4, ptr %8) #8
  call void @llvm.lifetime.end.p0(i64 4, ptr %7) #8
  call void @llvm.lifetime.end.p0(i64 4, ptr %6) #8
  call void @llvm.lifetime.end.p0(i64 8, ptr %5) #8
  ret void
}

; Function Attrs: inlinehint nounwind uwtable
define internal ptr @Vec_PtrEntry(ptr noundef %0, i32 noundef %1) #5 {
  %3 = alloca ptr, align 8
  %4 = alloca i32, align 4
  store ptr %0, ptr %3, align 8, !tbaa !68
  store i32 %1, ptr %4, align 4, !tbaa !8
  %5 = load ptr, ptr %3, align 8, !tbaa !68
  %6 = getelementptr inbounds nuw %struct.Vec_Ptr_t_, ptr %5, i32 0, i32 2
  %7 = load ptr, ptr %6, align 8, !tbaa !71
  %8 = load i32, ptr %4, align 4, !tbaa !8
  %9 = sext i32 %8 to i64
  %10 = getelementptr inbounds ptr, ptr %7, i64 %9
  %11 = load ptr, ptr %10, align 8, !tbaa !72
  ret ptr %11
}

; Function Attrs: inlinehint nounwind uwtable
define internal i32 @Vec_IntSize(ptr noundef %0) #5 {
  %2 = alloca ptr, align 8
  store ptr %0, ptr %2, align 8, !tbaa !73
  %3 = load ptr, ptr %2, align 8, !tbaa !73
  %4 = getelementptr inbounds nuw %struct.Vec_Int_t_, ptr %3, i32 0, i32 1
  %5 = load i32, ptr %4, align 4, !tbaa !94
  ret i32 %5
}

; Function Attrs: inlinehint nounwind uwtable
define internal i32 @Vec_PtrSize(ptr noundef %0) #5 {
  %2 = alloca ptr, align 8
  store ptr %0, ptr %2, align 8, !tbaa !68
  %3 = load ptr, ptr %2, align 8, !tbaa !68
  %4 = getelementptr inbounds nuw %struct.Vec_Ptr_t_, ptr %3, i32 0, i32 1
  %5 = load i32, ptr %4, align 4, !tbaa !69
  ret i32 %5
}

; Function Attrs: inlinehint nounwind uwtable
define internal i32 @Saig_ManRegNum(ptr noundef %0) #5 {
  %2 = alloca ptr, align 8
  store ptr %0, ptr %2, align 8, !tbaa !85
  %3 = load ptr, ptr %2, align 8, !tbaa !85
  %4 = getelementptr inbounds nuw %struct.Aig_Man_t_, ptr %3, i32 0, i32 8
  %5 = load i32, ptr %4, align 8, !tbaa !93
  ret i32 %5
}

; Function Attrs: inlinehint nounwind uwtable
define internal i32 @Saig_ManPiNum(ptr noundef %0) #5 {
  %2 = alloca ptr, align 8
  store ptr %0, ptr %2, align 8, !tbaa !85
  %3 = load ptr, ptr %2, align 8, !tbaa !85
  %4 = getelementptr inbounds nuw %struct.Aig_Man_t_, ptr %3, i32 0, i32 9
  %5 = load i32, ptr %4, align 4, !tbaa !86
  ret i32 %5
}

; Function Attrs: nounwind uwtable
define ptr @Llb_MtrCreate(ptr noundef %0) #0 {
  %2 = alloca ptr, align 8
  %3 = alloca ptr, align 8
  %4 = alloca ptr, align 8
  %5 = alloca i32, align 4
  store ptr %0, ptr %2, align 8, !tbaa !80
  call void @llvm.lifetime.start.p0(i64 8, ptr %3) #8
  call void @llvm.lifetime.start.p0(i64 8, ptr %4) #8
  call void @llvm.lifetime.start.p0(i64 4, ptr %5) #8
  %6 = load ptr, ptr %2, align 8, !tbaa !80
  %7 = getelementptr inbounds nuw %struct.Llb_Man_t_, ptr %6, i32 0, i32 2
  %8 = load ptr, ptr %7, align 8, !tbaa !81
  %9 = call i32 @Saig_ManPiNum(ptr noundef %8)
  %10 = load ptr, ptr %2, align 8, !tbaa !80
  %11 = getelementptr inbounds nuw %struct.Llb_Man_t_, ptr %10, i32 0, i32 2
  %12 = load ptr, ptr %11, align 8, !tbaa !81
  %13 = call i32 @Saig_ManRegNum(ptr noundef %12)
  %14 = load ptr, ptr %2, align 8, !tbaa !80
  %15 = getelementptr inbounds nuw %struct.Llb_Man_t_, ptr %14, i32 0, i32 8
  %16 = load ptr, ptr %15, align 8, !tbaa !82
  %17 = call i32 @Vec_PtrSize(ptr noundef %16)
  %18 = load ptr, ptr %2, align 8, !tbaa !80
  %19 = getelementptr inbounds nuw %struct.Llb_Man_t_, ptr %18, i32 0, i32 7
  %20 = load ptr, ptr %19, align 8, !tbaa !83
  %21 = call i32 @Vec_IntSize(ptr noundef %20)
  %22 = call ptr @Llb_MtrAlloc(i32 noundef %9, i32 noundef %13, i32 noundef %17, i32 noundef %21)
  store ptr %22, ptr %3, align 8, !tbaa !3
  store i32 0, ptr %5, align 4, !tbaa !8
  br label %23

23:                                               ; preds = %41, %1
  %24 = load i32, ptr %5, align 4, !tbaa !8
  %25 = load ptr, ptr %2, align 8, !tbaa !80
  %26 = getelementptr inbounds nuw %struct.Llb_Man_t_, ptr %25, i32 0, i32 8
  %27 = load ptr, ptr %26, align 8, !tbaa !82
  %28 = call i32 @Vec_PtrSize(ptr noundef %27)
  %29 = icmp slt i32 %24, %28
  br i1 %29, label %30, label %36

30:                                               ; preds = %23
  %31 = load ptr, ptr %2, align 8, !tbaa !80
  %32 = getelementptr inbounds nuw %struct.Llb_Man_t_, ptr %31, i32 0, i32 8
  %33 = load ptr, ptr %32, align 8, !tbaa !82
  %34 = load i32, ptr %5, align 4, !tbaa !8
  %35 = call ptr @Vec_PtrEntry(ptr noundef %33, i32 noundef %34)
  store ptr %35, ptr %4, align 8, !tbaa !50
  br label %36

36:                                               ; preds = %30, %23
  %37 = phi i1 [ false, %23 ], [ true, %30 ]
  br i1 %37, label %38, label %44

38:                                               ; preds = %36
  %39 = load ptr, ptr %3, align 8, !tbaa !3
  %40 = load ptr, ptr %4, align 8, !tbaa !50
  call void @Llb_MtrAddColumn(ptr noundef %39, ptr noundef %40)
  br label %41

41:                                               ; preds = %38
  %42 = load i32, ptr %5, align 4, !tbaa !8
  %43 = add nsw i32 %42, 1
  store i32 %43, ptr %5, align 4, !tbaa !8
  br label %23, !llvm.loop !84

44:                                               ; preds = %36
  %45 = load ptr, ptr %3, align 8, !tbaa !3
  call void @llvm.lifetime.end.p0(i64 4, ptr %5) #8
  call void @llvm.lifetime.end.p0(i64 8, ptr %4) #8
  call void @llvm.lifetime.end.p0(i64 8, ptr %3) #8
  ret ptr %45
}