; Function Attrs: nofree nounwind uwtable
define noalias noundef ptr @Llb_MtrCreate(ptr noundef readonly captures(none) %0) local_unnamed_addr #11 {
  %2 = getelementptr inbounds nuw i8, ptr %0, i64 16
  %3 = load ptr, ptr %2, align 8, !tbaa !74
  %4 = getelementptr i8, ptr %3, i64 108
  %.val13 = load i32, ptr %4, align 4, !tbaa !75
  %5 = getelementptr i8, ptr %3, i64 104
  %.val14 = load i32, ptr %5, align 8, !tbaa !82
  %6 = getelementptr inbounds nuw i8, ptr %0, i64 64
  %7 = load ptr, ptr %6, align 8, !tbaa !83
  %8 = getelementptr i8, ptr %7, i64 4
  %.val11 = load i32, ptr %8, align 4, !tbaa !52
  %9 = getelementptr inbounds nuw i8, ptr %0, i64 56
  %10 = load ptr, ptr %9, align 8, !tbaa !84
  %11 = getelementptr i8, ptr %10, i64 4
  %.val15 = load i32, ptr %11, align 4, !tbaa !85
  %12 = tail call ptr @Llb_MtrAlloc(i32 noundef %.val13, i32 noundef %.val14, i32 noundef %.val11, i32 noundef %.val15)
  %13 = load ptr, ptr %6, align 8, !tbaa !83
  %14 = getelementptr i8, ptr %13, i64 4
  %.val16 = load i32, ptr %14, align 4, !tbaa !52
  %15 = icmp sgt i32 %.val16, 0
  br i1 %15, label %.lr.ph, label %.critedge

.lr.ph:                                           ; preds = %1
  %16 = getelementptr inbounds nuw i8, ptr %12, i64 24
  %17 = load ptr, ptr %16, align 8, !tbaa !41
  %18 = getelementptr inbounds nuw i8, ptr %12, i64 40
  %19 = getelementptr inbounds nuw i8, ptr %12, i64 16
  %20 = getelementptr inbounds nuw i8, ptr %12, i64 32
  br label %21

21:                                               ; preds = %.lr.ph, %Llb_MtrAddColumn.exit
  %indvars.iv = phi i64 [ 0, %.lr.ph ], [ %indvars.iv.next, %Llb_MtrAddColumn.exit ]
  %22 = phi ptr [ %13, %.lr.ph ], [ %98, %Llb_MtrAddColumn.exit ]
  %23 = getelementptr i8, ptr %22, i64 8
  %.val12 = load ptr, ptr %23, align 8, !tbaa !55
  %24 = getelementptr inbounds nuw ptr, ptr %.val12, i64 %indvars.iv
  %25 = load ptr, ptr %24, align 8, !tbaa !56
  %26 = load i32, ptr %25, align 8, !tbaa !46
  %27 = sext i32 %26 to i64
  %28 = getelementptr inbounds ptr, ptr %17, i64 %27
  store ptr %25, ptr %28, align 8, !tbaa !50
  %29 = getelementptr inbounds nuw i8, ptr %25, i64 8
  %30 = load ptr, ptr %29, align 8, !tbaa !51
  %31 = getelementptr i8, ptr %30, i64 4
  %.val40.i = load i32, ptr %31, align 4, !tbaa !52
  %32 = icmp sgt i32 %.val40.i, 0
  br i1 %32, label %.lr.ph.i, label %.critedge.preheader.i

.lr.ph.i:                                         ; preds = %21
  %33 = getelementptr inbounds nuw i8, ptr %25, i64 32
  %34 = load ptr, ptr %18, align 8, !tbaa !19
  %35 = getelementptr inbounds ptr, ptr %34, i64 %27
  %36 = load ptr, ptr %19, align 8, !tbaa !40
  %37 = getelementptr inbounds i32, ptr %36, i64 %27
  %38 = load ptr, ptr %20, align 8, !tbaa !26
  br label %49

.critedge.preheader.i:                            ; preds = %49, %21
  %39 = getelementptr inbounds nuw i8, ptr %25, i64 16
  %40 = load ptr, ptr %39, align 8, !tbaa !54
  %41 = getelementptr i8, ptr %40, i64 4
  %.val3342.i = load i32, ptr %41, align 4, !tbaa !52
  %42 = icmp sgt i32 %.val3342.i, 0
  br i1 %42, label %.lr.ph44.i, label %Llb_MtrAddColumn.exit

.lr.ph44.i:                                       ; preds = %.critedge.preheader.i
  %43 = getelementptr inbounds nuw i8, ptr %25, i64 32
  %44 = load ptr, ptr %18, align 8, !tbaa !19
  %45 = getelementptr inbounds ptr, ptr %44, i64 %27
  %46 = load ptr, ptr %19, align 8, !tbaa !40
  %47 = getelementptr inbounds i32, ptr %46, i64 %27
  %48 = load ptr, ptr %20, align 8, !tbaa !26
  br label %.critedge.i

49:                                               ; preds = %49, %.lr.ph.i
  %indvars.iv.i = phi i64 [ 0, %.lr.ph.i ], [ %indvars.iv.next.i, %49 ]
  %50 = phi ptr [ %30, %.lr.ph.i ], [ %70, %49 ]
  %51 = getelementptr i8, ptr %50, i64 8
  %.val34.i = load ptr, ptr %51, align 8, !tbaa !55
  %52 = getelementptr inbounds nuw ptr, ptr %.val34.i, i64 %indvars.iv.i
  %53 = load ptr, ptr %52, align 8, !tbaa !56
  %54 = load ptr, ptr %33, align 8, !tbaa !57
  %55 = getelementptr inbounds nuw i8, ptr %54, i64 48
  %56 = load ptr, ptr %55, align 8, !tbaa !58
  %57 = getelementptr i8, ptr %53, i64 36
  %.val36.i = load i32, ptr %57, align 4, !tbaa !65
  %58 = getelementptr i8, ptr %56, i64 8
  %.val38.i = load ptr, ptr %58, align 8, !tbaa !68
  %59 = sext i32 %.val36.i to i64
  %60 = getelementptr inbounds i32, ptr %.val38.i, i64 %59
  %61 = load i32, ptr %60, align 4, !tbaa !15
  %62 = load ptr, ptr %35, align 8, !tbaa !20
  %63 = sext i32 %61 to i64
  %64 = getelementptr inbounds i8, ptr %62, i64 %63
  store i8 1, ptr %64, align 1, !tbaa !21
  %65 = load i32, ptr %37, align 4, !tbaa !15
  %66 = add nsw i32 %65, 1
  store i32 %66, ptr %37, align 4, !tbaa !15
  %67 = getelementptr inbounds i32, ptr %38, i64 %63
  %68 = load i32, ptr %67, align 4, !tbaa !15
  %69 = add nsw i32 %68, 1
  store i32 %69, ptr %67, align 4, !tbaa !15
  %indvars.iv.next.i = add nuw nsw i64 %indvars.iv.i, 1
  %70 = load ptr, ptr %29, align 8, !tbaa !51
  %71 = getelementptr i8, ptr %70, i64 4
  %.val.i = load i32, ptr %71, align 4, !tbaa !52
  %72 = sext i32 %.val.i to i64
  %73 = icmp slt i64 %indvars.iv.next.i, %72
  br i1 %73, label %49, label %.critedge.preheader.i, !llvm.loop !70

.critedge.i:                                      ; preds = %.critedge.i, %.lr.ph44.i
  %indvars.iv46.i = phi i64 [ 0, %.lr.ph44.i ], [ %indvars.iv.next47.i, %.critedge.i ]
  %74 = phi ptr [ %40, %.lr.ph44.i ], [ %94, %.critedge.i ]
  %75 = getelementptr i8, ptr %74, i64 8
  %.val35.i = load ptr, ptr %75, align 8, !tbaa !55
  %76 = getelementptr inbounds nuw ptr, ptr %.val35.i, i64 %indvars.iv46.i
  %77 = load ptr, ptr %76, align 8, !tbaa !56
  %78 = load ptr, ptr %43, align 8, !tbaa !57
  %79 = getelementptr inbounds nuw i8, ptr %78, i64 48
  %80 = load ptr, ptr %79, align 8, !tbaa !58
  %81 = getelementptr i8, ptr %77, i64 36
  %.val37.i = load i32, ptr %81, align 4, !tbaa !65
  %82 = getelementptr i8, ptr %80, i64 8
  %.val39.i = load ptr, ptr %82, align 8, !tbaa !68
  %83 = sext i32 %.val37.i to i64
  %84 = getelementptr inbounds i32, ptr %.val39.i, i64 %83
  %85 = load i32, ptr %84, align 4, !tbaa !15
  %86 = load ptr, ptr %45, align 8, !tbaa !20
  %87 = sext i32 %85 to i64
  %88 = getelementptr inbounds i8, ptr %86, i64 %87
  store i8 1, ptr %88, align 1, !tbaa !21
  %89 = load i32, ptr %47, align 4, !tbaa !15
  %90 = add nsw i32 %89, 1
  store i32 %90, ptr %47, align 4, !tbaa !15
  %91 = getelementptr inbounds i32, ptr %48, i64 %87
  %92 = load i32, ptr %91, align 4, !tbaa !15
  %93 = add nsw i32 %92, 1
  store i32 %93, ptr %91, align 4, !tbaa !15
  %indvars.iv.next47.i = add nuw nsw i64 %indvars.iv46.i, 1
  %94 = load ptr, ptr %39, align 8, !tbaa !54
  %95 = getelementptr i8, ptr %94, i64 4
  %.val33.i = load i32, ptr %95, align 4, !tbaa !52
  %96 = sext i32 %.val33.i to i64
  %97 = icmp slt i64 %indvars.iv.next47.i, %96
  br i1 %97, label %.critedge.i, label %Llb_MtrAddColumn.exit, !llvm.loop !71

Llb_MtrAddColumn.exit:                            ; preds = %.critedge.i, %.critedge.preheader.i
  %indvars.iv.next = add nuw nsw i64 %indvars.iv, 1
  %98 = load ptr, ptr %6, align 8, !tbaa !83
  %99 = getelementptr i8, ptr %98, i64 4
  %.val = load i32, ptr %99, align 4, !tbaa !52
  %100 = sext i32 %.val to i64
  %101 = icmp slt i64 %indvars.iv.next, %100
  br i1 %101, label %21, label %.critedge, !llvm.loop !86

.critedge:                                        ; preds = %Llb_MtrAddColumn.exit, %1
  ret ptr %12
}